Microsoft (R) Macro Assembler Version 14.29.30136.0	    11/10/21 22:16:30
main.asm						     Page 1 - 1


				.386P

				.model flat

				extern _GetStdHandle@4:near
				extern _ExitProcess@4: near
				extern _WriteConsoleA@20:near
				extern _ReadConsoleA@20:near

 00000000			.data

 00000000 00000001		prev		dword	1
 00000004 00000001		current		dword	1
 00000008 00000000		next		dword	0

 00000000			.code


 00000000			main PROC near

 00000000			_main:

 00000000  B9 00000003			mov		ecx,	3				; ecx is counter register. We put 3 in there because that is where the for loop starts (i = 3)
 00000005  B8 00000006			mov		eax,	6				; 5 can be changed to whatever number. EAX = n
 0000000A  8B 3D 00000000 R		mov		edi,	prev
 00000010  8B 35 00000004 R		mov		esi,	current
 00000016  8B 15 00000008 R		mov		edx,	next

 0000001C  83 F8 00			cmp		eax,	0			
 0000001F  74 1D			je		_condition0
 00000021  83 F8 03			cmp		eax,	3			
 00000024  7C 29			jl		_condition1
 00000026  83 F8 03			cmp		eax,	3
 00000029  74 35			je		_condition2
 0000002B  2B C1			sub		eax,	ecx				; Subtracting ECX from EAX so we know how many iterations we need to do and storing it into ecx. This is because the loop starts at 3
 0000002D  83 C0 01			add		eax,	1
 00000030  8B C8			mov		ecx,	eax

 00000032			_loop: 
														
 00000032  8B D6			mov		edx,	esi				; this and next line are next = current + previous
 00000034  03 D7			add		edx,	edi
 00000036  8B FE			mov		edi,	esi				; previous = current
 00000038  8B F2			mov		esi,	edx				; current = next
 0000003A  E2 F6			loop	_loop					; 
 0000003C  EB 33			jmp		_exit

 0000003E			_condition0:
					
 0000003E  B8 00000000			mov		eax,	0
 00000043  A3 00000008 R		mov		next,	eax
 00000048  6A 00			push	0
 0000004A  E8 00000000 E		call _ExitProcess@4

 0000004F			_condition1:

 0000004F  B8 00000001			mov		eax,	1
 00000054  A3 00000008 R		mov		next,	eax
 00000059  6A 00			push	0
 0000005B  E8 00000000 E		call _ExitProcess@4

 00000060			_condition2:

 00000060  B8 00000002			mov		eax,	2
 00000065  A3 00000008 R		mov		next,	eax
 0000006A  6A 00			push	0
 0000006C  E8 00000000 E		call _ExitProcess@4

 00000071			_exit:
					
 00000071  8B C2			mov		eax,	edx				; getting next and putting into eax for value checking
 00000073  6A 00			push 0
 00000075  E8 00000000 E		call _ExitProcess@4

 0000007A			main ENDP
				END
Microsoft (R) Macro Assembler Version 14.29.30136.0	    11/10/21 22:16:30
main.asm						     Symbols 2 - 1




Segments and Groups:

                N a m e                 Size     Length   Align   Combine Class

FLAT . . . . . . . . . . . . . .	GROUP
_DATA  . . . . . . . . . . . . .	32 Bit	 0000000C Para	  Public  'DATA'	
_TEXT  . . . . . . . . . . . . .	32 Bit	 0000007A Para	  Public  'CODE'	


Procedures, parameters, and locals:

                N a m e                 Type     Value    Attr

main . . . . . . . . . . . . . .	P Near	 00000000 _TEXT	Length= 0000007A Public
  _main  . . . . . . . . . . . .	L Near	 00000000 _TEXT	
  _loop  . . . . . . . . . . . .	L Near	 00000032 _TEXT	
  _condition0  . . . . . . . . .	L Near	 0000003E _TEXT	
  _condition1  . . . . . . . . .	L Near	 0000004F _TEXT	
  _condition2  . . . . . . . . .	L Near	 00000060 _TEXT	
  _exit  . . . . . . . . . . . .	L Near	 00000071 _TEXT	


Symbols:

                N a m e                 Type     Value    Attr

@CodeSize  . . . . . . . . . . .	Number	 00000000h   
@DataSize  . . . . . . . . . . .	Number	 00000000h   
@Interface . . . . . . . . . . .	Number	 00000000h   
@Model . . . . . . . . . . . . .	Number	 00000007h   
@code  . . . . . . . . . . . . .	Text   	 _TEXT
@data  . . . . . . . . . . . . .	Text   	 FLAT
@fardata?  . . . . . . . . . . .	Text   	 FLAT
@fardata . . . . . . . . . . . .	Text   	 FLAT
@stack . . . . . . . . . . . . .	Text   	 FLAT
_ExitProcess@4 . . . . . . . . .	L Near	 00000000 FLAT	External
_GetStdHandle@4  . . . . . . . .	L Near	 00000000 FLAT	External
_ReadConsoleA@20 . . . . . . . .	L Near	 00000000 FLAT	External
_WriteConsoleA@20  . . . . . . .	L Near	 00000000 FLAT	External
current  . . . . . . . . . . . .	DWord	 00000004 _DATA	
next . . . . . . . . . . . . . .	DWord	 00000008 _DATA	
prev . . . . . . . . . . . . . .	DWord	 00000000 _DATA	

	   0 Warnings
	   0 Errors
