Microsoft (R) Macro Assembler Version 14.29.30136.0	    12/06/21 17:02:53
main.asm						     Page 1 - 1


				.386P

				.model flat

				extern _GetStdHandle@4:near
				extern _ExitProcess@4: near
				extern _WriteConsoleA@20:near
				extern _ReadConsoleA@20:near
				extern _ExitProcess@4: near

				extern WriteLine:near
				extern ReadLine:near
				extern atoi:near
				extern itoa:near

 00000000			.data

 00000000 45 6E 74 65 72	msg		byte	'Enter number 1: ', 10
	   20 6E 75 6D 62
	   65 72 20 31 3A
	   20 0A
 00000011 45 6E 74 65 72	msg2	byte	'Enter number 2: ', 10
	   20 6E 75 6D 62
	   65 72 20 32 3A
	   20 0A
 00000022 54 68 65 20 6D	result	byte	'The multiplication result is: ', 10
	   75 6C 74 69 70
	   6C 69 63 61 74
	   69 6F 6E 20 72
	   65 73 75 6C 74
	   20 69 73 3A 20
	   0A

 00000041  00000100 [		input				byte	256		DUP(00h)
	    00
	   ]
 00000141  00000100 [		input2				byte	256		DUP(00h)
	    00
	   ]

 00000241 00000000		num1				dword	0
 00000245 00000000		num2				dword	0
 00000249 00000000		answer				dword	0
 0000024D  00000100 [		answer2				byte	256		DUP(00h)
	    00
	   ]

 00000000			.code

 00000000			main PROC near

 00000000			_main:
					
 00000000  68 00000000 R		push	offset msg
 00000005  E8 00000000 E		call	WriteLine

 0000000A  68 00000041 R		push	offset input
 0000000F  E8 00000000 E		call	ReadLine

 00000014  68 00000011 R		push	offset msg2
 00000019  E8 00000000 E		call	WriteLine

 0000001E  68 00000141 R		push	offset	input2
 00000023  E8 00000000 E		call	ReadLine

 00000028  68 00000041 R		push	offset input
 0000002D  E8 00000000 E		call	atoi
 00000032  A3 00000241 R		mov		num1,	eax	

 00000037  68 00000141 R		push	offset input2
 0000003C  E8 00000000 E		call	atoi
 00000041  A3 00000245 R		mov		num2,	eax

 00000046  A1 00000241 R		mov		eax,	num1
 0000004B  F7 25 00000245 R		mul		num2
 00000051  A3 00000249 R		mov		answer,	eax

 00000056  68 00000022 R		push	offset result
 0000005B  E8 00000000 E		call	WriteLine

 00000060  68 00000249 R		push	offset	answer
 00000065  68 0000024D R		push	offset	answer2
 0000006A  E8 00000000 E		call	itoa

 0000006F  50				push	eax
 00000070  E8 00000000 E		call	WriteLine

 00000075  6A 00			push	0
 00000077  E8 00000000 E		call	_ExitProcess@4

 0000007C			main ENDP
				END
Microsoft (R) Macro Assembler Version 14.29.30136.0	    12/06/21 17:02:53
main.asm						     Symbols 2 - 1




Segments and Groups:

                N a m e                 Size     Length   Align   Combine Class

FLAT . . . . . . . . . . . . . .	GROUP
_DATA  . . . . . . . . . . . . .	32 Bit	 0000034D Para	  Public  'DATA'	
_TEXT  . . . . . . . . . . . . .	32 Bit	 0000007C Para	  Public  'CODE'	


Procedures, parameters, and locals:

                N a m e                 Type     Value    Attr

main . . . . . . . . . . . . . .	P Near	 00000000 _TEXT	Length= 0000007C Public
  _main  . . . . . . . . . . . .	L Near	 00000000 _TEXT	


Symbols:

                N a m e                 Type     Value    Attr

@CodeSize  . . . . . . . . . . .	Number	 00000000h   
@DataSize  . . . . . . . . . . .	Number	 00000000h   
@Interface . . . . . . . . . . .	Number	 00000000h   
@Model . . . . . . . . . . . . .	Number	 00000007h   
@code  . . . . . . . . . . . . .	Text   	 _TEXT
@data  . . . . . . . . . . . . .	Text   	 FLAT
@fardata?  . . . . . . . . . . .	Text   	 FLAT
@fardata . . . . . . . . . . . .	Text   	 FLAT
@stack . . . . . . . . . . . . .	Text   	 FLAT
ReadLine . . . . . . . . . . . .	L Near	 00000000 FLAT	External
WriteLine  . . . . . . . . . . .	L Near	 00000000 FLAT	External
_ExitProcess@4 . . . . . . . . .	L Near	 00000000 FLAT	External
_GetStdHandle@4  . . . . . . . .	L Near	 00000000 FLAT	External
_ReadConsoleA@20 . . . . . . . .	L Near	 00000000 FLAT	External
_WriteConsoleA@20  . . . . . . .	L Near	 00000000 FLAT	External
answer2  . . . . . . . . . . . .	Byte	 0000024D _DATA	
answer . . . . . . . . . . . . .	DWord	 00000249 _DATA	
atoi . . . . . . . . . . . . . .	L Near	 00000000 FLAT	External
input2 . . . . . . . . . . . . .	Byte	 00000141 _DATA	
input  . . . . . . . . . . . . .	Byte	 00000041 _DATA	
itoa . . . . . . . . . . . . . .	L Near	 00000000 FLAT	External
msg2 . . . . . . . . . . . . . .	Byte	 00000011 _DATA	
msg  . . . . . . . . . . . . . .	Byte	 00000000 _DATA	
num1 . . . . . . . . . . . . . .	DWord	 00000241 _DATA	
num2 . . . . . . . . . . . . . .	DWord	 00000245 _DATA	
result . . . . . . . . . . . . .	Byte	 00000022 _DATA	

	   0 Warnings
	   0 Errors
